target datalayout = "e-m:e-p270:32:32-p271:32:32-p272:64:64-i64:64-i128:128-f80:128-n8:16:32:64-S128"
target triple = "x86_64-pc-linux-gnu"

%struct.H5T_cdata_t = type { i32, i32, i8, ptr }
%struct.H5T_conv_struct_t = type { ptr, ptr, ptr, ptr, ptr, ptr, %struct.H5T_subset_info_t, i32 }
%struct.H5T_subset_info_t = type { i32, i64 }

@H5T_init_g = external global i8, align 1
@H5_libterm_g = external global i8, align 1

; Function Attrs: nounwind uwtable
define ptr @H5T__conv_struct_subset(ptr noundef %0) #0 {
  %2 = alloca ptr, align 8
  %3 = alloca ptr, align 8
  store ptr %0, ptr %2, align 8, !tbaa !3
  call void @llvm.lifetime.start.p0(i64 8, ptr %3) #9
  store ptr null, ptr %3, align 8, !tbaa !8
  %4 = load i8, ptr @H5T_init_g, align 1, !tbaa !10, !range !12, !noundef !13
  %5 = trunc i8 %4 to i1
  br i1 %5, label %10, label %6

6:                                                ; preds = %1
  %7 = load i8, ptr @H5_libterm_g, align 1, !tbaa !10, !range !12, !noundef !13
  %8 = trunc i8 %7 to i1
  %9 = xor i1 %8, true
  br label %10

10:                                               ; preds = %6, %1
  %11 = phi i1 [ true, %1 ], [ %9, %6 ]
  %12 = xor i1 %11, true
  %13 = xor i1 %12, true
  %14 = zext i1 %13 to i32
  %15 = sext i32 %14 to i64
  %16 = call i64 @llvm.expect.i64(i64 %15, i64 1)
  %17 = icmp ne i64 %16, 0
  br i1 %17, label %18, label %22

18:                                               ; preds = %10
  %19 = load ptr, ptr %2, align 8, !tbaa !3
  %20 = getelementptr inbounds nuw %struct.H5T_cdata_t, ptr %19, i32 0, i32 3
  %21 = load ptr, ptr %20, align 8, !tbaa !14
  store ptr %21, ptr %3, align 8, !tbaa !8
  br label %22

22:                                               ; preds = %18, %10
  %23 = load ptr, ptr %3, align 8, !tbaa !8
  %24 = getelementptr inbounds nuw %struct.H5T_conv_struct_t, ptr %23, i32 0, i32 6
  call void @llvm.lifetime.end.p0(i64 8, ptr %3) #9
  ret ptr %24
}